; Function Attrs: nounwind sspstrong uwtable
define dso_local void @tcg_gen_not_vec(i32 noundef %vece, ptr noundef %r, ptr noundef %a) local_unnamed_addr #0 {
entry:
  %0 = load i32, ptr @cpuinfo, align 4
  %1 = and i32 %0, 6144
  %or.cond.not = icmp eq i32 %1, 6144
  br i1 %or.cond.not, label %if.then, label %if.else

if.then:                                          ; preds = %entry
  %2 = tail call align 8 ptr @llvm.threadlocal.address.p0(ptr align 8 @tcg_ctx)
  %3 = load ptr, ptr %2, align 8
  %4 = ptrtoint ptr %r to i64
  %add.ptr.i.i.i = getelementptr i8, ptr %3, i64 %4
  %5 = ptrtoint ptr %a to i64
  %add.ptr.i.i4.i = getelementptr i8, ptr %3, i64 %5
  %bf.load.i = load i64, ptr %add.ptr.i.i.i, align 8
  %6 = trunc i64 %bf.load.i to i32
  %7 = lshr i32 %6, 16
  %bf.cast.i = and i32 %7, 255
  %bf.load2.i = load i64, ptr %add.ptr.i.i4.i, align 8
  %8 = trunc i64 %bf.load2.i to i32
  %9 = lshr i32 %8, 16
  %bf.cast5.i = and i32 %9, 255
  %cmp.i = icmp samesign uge i32 %bf.cast5.i, %bf.cast.i
  tail call void @llvm.assume(i1 %cmp.i)
  %10 = ptrtoint ptr %add.ptr.i.i.i to i64
  %11 = ptrtoint ptr %add.ptr.i.i4.i to i64
  %call.i.i = tail call ptr @tcg_emit_op(i32 noundef 176, i32 noundef 2) #5
  %bf.load.i.i = load i32, ptr %call.i.i, align 8
  %sub.i.i = shl nuw nsw i32 %bf.cast.i, 16
  %bf.value.i.i = add nuw nsw i32 %sub.i.i, 16580608
  %bf.clear.i.i = and i32 %bf.load.i.i, 65535
  %bf.value.masked.i.i = and i32 %bf.value.i.i, 16711680
  %bf.clear4.i.i = or disjoint i32 %bf.value.masked.i.i, %bf.clear.i.i
  store i32 %bf.clear4.i.i, ptr %call.i.i, align 8
  %args.i.i = getelementptr inbounds nuw i8, ptr %call.i.i, i64 32
  store i64 %10, ptr %args.i.i, align 8
  %arrayidx7.i.i = getelementptr i8, ptr %call.i.i, i64 40
  store i64 %11, ptr %arrayidx7.i.i, align 8
  br label %if.end

if.else:                                          ; preds = %entry
  %call = tail call ptr @tcg_constant_vec_matching(ptr noundef %r, i32 noundef 0, i64 noundef -1) #5
  %12 = tail call align 8 ptr @llvm.threadlocal.address.p0(ptr align 8 @tcg_ctx)
  %13 = load ptr, ptr %12, align 8
  %14 = ptrtoint ptr %r to i64
  %add.ptr.i.i.i.i = getelementptr i8, ptr %13, i64 %14
  %15 = ptrtoint ptr %a to i64
  %add.ptr.i.i6.i.i = getelementptr i8, ptr %13, i64 %15
  %16 = ptrtoint ptr %call to i64
  %add.ptr.i.i7.i.i = getelementptr i8, ptr %13, i64 %16
  %bf.load.i.i4 = load i64, ptr %add.ptr.i.i.i.i, align 8
  %17 = trunc i64 %bf.load.i.i4 to i32
  %18 = lshr i32 %17, 16
  %bf.cast.i.i = and i32 %18, 255
  %bf.load3.i.i = load i64, ptr %add.ptr.i.i6.i.i, align 8
  %19 = trunc i64 %bf.load3.i.i to i32
  %20 = lshr i32 %19, 16
  %bf.cast6.i.i = and i32 %20, 255
  %cmp.i.i = icmp samesign uge i32 %bf.cast6.i.i, %bf.cast.i.i
  tail call void @llvm.assume(i1 %cmp.i.i)
  %bf.load8.i.i = load i64, ptr %add.ptr.i.i7.i.i, align 8
  %21 = trunc i64 %bf.load8.i.i to i32
  %22 = lshr i32 %21, 16
  %bf.cast11.i.i = and i32 %22, 255
  %cmp12.i.i = icmp samesign uge i32 %bf.cast11.i.i, %bf.cast.i.i
  tail call void @llvm.assume(i1 %cmp12.i.i)
  %23 = ptrtoint ptr %add.ptr.i.i.i.i to i64
  %24 = ptrtoint ptr %add.ptr.i.i6.i.i to i64
  %25 = ptrtoint ptr %add.ptr.i.i7.i.i to i64
  %call.i.i.i = tail call ptr @tcg_emit_op(i32 noundef 170, i32 noundef 3) #5
  %bf.load.i.i.i = load i32, ptr %call.i.i.i, align 8
  %sub.i.i.i = shl nuw nsw i32 %bf.cast.i.i, 16
  %bf.value.i.i.i = add nuw nsw i32 %sub.i.i.i, 16580608
  %bf.clear.i.i.i = and i32 %bf.load.i.i.i, 65535
  %bf.value.masked.i.i.i = and i32 %bf.value.i.i.i, 16711680
  %bf.clear4.i.i.i = or disjoint i32 %bf.clear.i.i.i, %bf.value.masked.i.i.i
  store i32 %bf.clear4.i.i.i, ptr %call.i.i.i, align 8
  %args.i.i.i = getelementptr inbounds nuw i8, ptr %call.i.i.i, i64 32
  store i64 %23, ptr %args.i.i.i, align 8
  %arrayidx7.i.i.i = getelementptr i8, ptr %call.i.i.i, i64 40
  store i64 %24, ptr %arrayidx7.i.i.i, align 8
  %arrayidx9.i.i.i = getelementptr i8, ptr %call.i.i.i, i64 48
  store i64 %25, ptr %arrayidx9.i.i.i, align 8
  br label %if.end

if.end:                                           ; preds = %if.else, %if.then
  ret void
}